target datalayout = "e-m:e-p270:32:32-p271:32:32-p272:64:64-i64:64-i128:128-f80:128-n8:16:32:64-S128"
target triple = "x86_64-pc-linux-gnu"

%struct.PlannedStmt = type { i32, i32, i64, i8, i8, i8, i8, i8, i8, i32, ptr, ptr, ptr, ptr, ptr, ptr, ptr, ptr, ptr, ptr, ptr, ptr, ptr, ptr, i32, i32 }
%struct.Node = type { i32 }

; Function Attrs: nounwind uwtable
define dso_local zeroext i1 @PlannedStmtRequiresSnapshot(ptr noundef %0) #0 {
  %2 = alloca i1, align 1
  %3 = alloca ptr, align 8
  %4 = alloca ptr, align 8
  %5 = alloca i32, align 4
  store ptr %0, ptr %3, align 8
  call void @llvm.lifetime.start.p0(i64 8, ptr %4) #10
  %6 = load ptr, ptr %3, align 8
  %7 = getelementptr inbounds nuw %struct.PlannedStmt, ptr %6, i32 0, i32 23
  %8 = load ptr, ptr %7, align 8
  store ptr %8, ptr %4, align 8
  %9 = load ptr, ptr %4, align 8
  %10 = icmp eq ptr %9, null
  br i1 %10, label %11, label %12

11:                                               ; preds = %1
  store i1 true, ptr %2, align 1
  store i32 1, ptr %5, align 4
  br label %64

12:                                               ; preds = %1
  %13 = load ptr, ptr %4, align 8
  %14 = getelementptr inbounds nuw %struct.Node, ptr %13, i32 0, i32 0
  %15 = load i32, ptr %14, align 4
  %16 = icmp eq i32 %15, 224
  br i1 %16, label %62, label %17

17:                                               ; preds = %12
  %18 = load ptr, ptr %4, align 8
  %19 = getelementptr inbounds nuw %struct.Node, ptr %18, i32 0, i32 0
  %20 = load i32, ptr %19, align 4
  %21 = icmp eq i32 %20, 245
  br i1 %21, label %62, label %22

22:                                               ; preds = %17
  %23 = load ptr, ptr %4, align 8
  %24 = getelementptr inbounds nuw %struct.Node, ptr %23, i32 0, i32 0
  %25 = load i32, ptr %24, align 4
  %26 = icmp eq i32 %25, 157
  br i1 %26, label %62, label %27

27:                                               ; preds = %22
  %28 = load ptr, ptr %4, align 8
  %29 = getelementptr inbounds nuw %struct.Node, ptr %28, i32 0, i32 0
  %30 = load i32, ptr %29, align 4
  %31 = icmp eq i32 %30, 158
  br i1 %31, label %62, label %32

32:                                               ; preds = %27
  %33 = load ptr, ptr %4, align 8
  %34 = getelementptr inbounds nuw %struct.Node, ptr %33, i32 0, i32 0
  %35 = load i32, ptr %34, align 4
  %36 = icmp eq i32 %35, 246
  br i1 %36, label %62, label %37

37:                                               ; preds = %32
  %38 = load ptr, ptr %4, align 8
  %39 = getelementptr inbounds nuw %struct.Node, ptr %38, i32 0, i32 0
  %40 = load i32, ptr %39, align 4
  %41 = icmp eq i32 %40, 202
  br i1 %41, label %62, label %42

42:                                               ; preds = %37
  %43 = load ptr, ptr %4, align 8
  %44 = getelementptr inbounds nuw %struct.Node, ptr %43, i32 0, i32 0
  %45 = load i32, ptr %44, align 4
  %46 = icmp eq i32 %45, 222
  br i1 %46, label %62, label %47

47:                                               ; preds = %42
  %48 = load ptr, ptr %4, align 8
  %49 = getelementptr inbounds nuw %struct.Node, ptr %48, i32 0, i32 0
  %50 = load i32, ptr %49, align 4
  %51 = icmp eq i32 %50, 221
  br i1 %51, label %62, label %52

52:                                               ; preds = %47
  %53 = load ptr, ptr %4, align 8
  %54 = getelementptr inbounds nuw %struct.Node, ptr %53, i32 0, i32 0
  %55 = load i32, ptr %54, align 4
  %56 = icmp eq i32 %55, 223
  br i1 %56, label %62, label %57

57:                                               ; preds = %52
  %58 = load ptr, ptr %4, align 8
  %59 = getelementptr inbounds nuw %struct.Node, ptr %58, i32 0, i32 0
  %60 = load i32, ptr %59, align 4
  %61 = icmp eq i32 %60, 243
  br i1 %61, label %62, label %63

62:                                               ; preds = %57, %52, %47, %42, %37, %32, %27, %22, %17, %12
  store i1 false, ptr %2, align 1
  store i32 1, ptr %5, align 4
  br label %64

63:                                               ; preds = %57
  store i1 true, ptr %2, align 1
  store i32 1, ptr %5, align 4
  br label %64

64:                                               ; preds = %63, %62, %11
  call void @llvm.lifetime.end.p0(i64 8, ptr %4) #10
  %65 = load i1, ptr %2, align 1
  ret i1 %65
}