; Function Attrs: mustprogress nofree norecurse nosync nounwind willreturn memory(read, inaccessiblemem: none) uwtable
define dso_local noundef zeroext i1 @PlannedStmtRequiresSnapshot(ptr noundef readonly captures(none) %0) local_unnamed_addr #7 {
  %2 = getelementptr inbounds nuw i8, ptr %0, i64 136
  %3 = load ptr, ptr %2, align 8
  %4 = icmp eq ptr %3, null
  br i1 %4, label %8, label %5

5:                                                ; preds = %1
  %6 = load i32, ptr %3, align 4
  switch i32 %6, label %7 [
    i32 224, label %8
    i32 245, label %8
    i32 157, label %8
    i32 158, label %8
    i32 246, label %8
    i32 202, label %8
    i32 222, label %8
    i32 221, label %8
    i32 223, label %8
    i32 243, label %8
  ]

7:                                                ; preds = %5
  br label %8

8:                                                ; preds = %5, %5, %5, %5, %5, %5, %5, %5, %5, %5, %1, %7
  %.0 = phi i1 [ true, %7 ], [ true, %1 ], [ false, %5 ], [ false, %5 ], [ false, %5 ], [ false, %5 ], [ false, %5 ], [ false, %5 ], [ false, %5 ], [ false, %5 ], [ false, %5 ], [ false, %5 ]
  ret i1 %.0
}